; Function Attrs: nounwind uwtable
define dso_local i32 @nghttp2_session_add_window_update(ptr noundef %0, i8 noundef zeroext %1, i32 noundef %2, i32 noundef %3) local_unnamed_addr #1 {
  %5 = getelementptr inbounds nuw i8, ptr %0, i64 2528
  %6 = tail call ptr @nghttp2_mem_malloc(ptr noundef nonnull %5, i64 noundef 152) #20
  %7 = icmp eq ptr %6, null
  br i1 %7, label %11, label %8

8:                                                ; preds = %4
  tail call void @nghttp2_outbound_item_init(ptr noundef nonnull %6) #20
  tail call void @nghttp2_frame_window_update_init(ptr noundef nonnull %6, i8 noundef zeroext %1, i32 noundef %2, i32 noundef %3) #20
  %9 = tail call i32 @nghttp2_session_add_item(ptr noundef nonnull %0, ptr noundef nonnull %6)
  %.not = icmp eq i32 %9, 0
  br i1 %.not, label %11, label %10

10:                                               ; preds = %8
  tail call void @nghttp2_frame_window_update_free(ptr noundef nonnull %6) #20
  tail call void @nghttp2_mem_free(ptr noundef nonnull %5, ptr noundef nonnull %6) #20
  br label %11

11:                                               ; preds = %8, %4, %10
  %.0 = phi i32 [ %9, %10 ], [ -901, %4 ], [ 0, %8 ]
  ret i32 %.0
}